; Function Attrs: nounwind uwtable
define ptr @l_Lake_PConfigDecl_opaqueTargetConfig_x3f___rarg___boxed(ptr noundef %0) #0 {
  %2 = getelementptr inbounds nuw i8, ptr %0, i64 24
  %3 = load ptr, ptr %2, align 8, !tbaa !4
  %4 = tail call zeroext i8 @l_Lean_Name_isAnonymous(ptr noundef %3) #5
  %5 = icmp eq i8 %4, 0
  br i1 %5, label %l_Lake_PConfigDecl_opaqueTargetConfig_x3f___rarg.exit, label %6

6:                                                ; preds = %1
  %7 = getelementptr inbounds nuw i8, ptr %0, i64 32
  %8 = load ptr, ptr %7, align 8, !tbaa !4
  %9 = ptrtoint ptr %8 to i64
  %10 = and i64 %9, 1
  %.not.i3 = icmp eq i64 %10, 0
  br i1 %.not.i3, label %11, label %lean_inc.exit.i

11:                                               ; preds = %6
  %.val.i.i = load i32, ptr %8, align 4, !tbaa !8
  %12 = icmp sgt i32 %.val.i.i, 0
  br i1 %12, label %13, label %15, !prof !11

13:                                               ; preds = %11
  %14 = add nuw i32 %.val.i.i, 1
  store i32 %14, ptr %8, align 4, !tbaa !8
  br label %lean_inc.exit.i

15:                                               ; preds = %11
  %.not.i.i = icmp eq i32 %.val.i.i, 0
  br i1 %.not.i.i, label %lean_inc.exit.i, label %16

16:                                               ; preds = %15
  tail call void @lean_inc_ref_cold(ptr noundef nonnull %8) #5
  br label %lean_inc.exit.i

lean_inc.exit.i:                                  ; preds = %16, %15, %13, %6
  tail call void @lean_inc_heartbeat() #5
  %17 = tail call noalias ptr @mi_malloc_small(i64 noundef 16) #5
  %18 = icmp eq ptr %17, null
  br i1 %18, label %19, label %lean_alloc_ctor.exit.i

19:                                               ; preds = %lean_inc.exit.i
  tail call void @lean_internal_panic_out_of_memory() #6
  unreachable

lean_alloc_ctor.exit.i:                           ; preds = %lean_inc.exit.i
  %20 = getelementptr inbounds nuw i8, ptr %17, i64 4
  store i32 1, ptr %17, align 4, !tbaa !8
  store i32 16842768, ptr %20, align 4
  %21 = getelementptr inbounds nuw i8, ptr %17, i64 8
  store ptr %8, ptr %21, align 8, !tbaa !4
  br label %l_Lake_PConfigDecl_opaqueTargetConfig_x3f___rarg.exit

l_Lake_PConfigDecl_opaqueTargetConfig_x3f___rarg.exit: ; preds = %1, %lean_alloc_ctor.exit.i
  %.0.i = phi ptr [ %17, %lean_alloc_ctor.exit.i ], [ inttoptr (i64 1 to ptr), %1 ]
  %22 = ptrtoint ptr %0 to i64
  %23 = and i64 %22, 1
  %.not = icmp eq i64 %23, 0
  br i1 %.not, label %24, label %lean_dec.exit

24:                                               ; preds = %l_Lake_PConfigDecl_opaqueTargetConfig_x3f___rarg.exit
  %25 = load i32, ptr %0, align 4, !tbaa !8
  %26 = icmp sgt i32 %25, 1
  br i1 %26, label %27, label %29, !prof !11

27:                                               ; preds = %24
  %28 = add nsw i32 %25, -1
  store i32 %28, ptr %0, align 4, !tbaa !8
  br label %lean_dec.exit

29:                                               ; preds = %24
  %.not.i = icmp eq i32 %25, 0
  br i1 %.not.i, label %lean_dec.exit, label %30

30:                                               ; preds = %29
  tail call void @lean_dec_ref_cold(ptr noundef nonnull %0) #5
  br label %lean_dec.exit

lean_dec.exit:                                    ; preds = %30, %29, %27, %l_Lake_PConfigDecl_opaqueTargetConfig_x3f___rarg.exit
  ret ptr %.0.i
}